(dp1
(S'HLA_B-3501'
I9
tp2
(lp3
F0
aF0.042000000000000003
aF0.19
aF0.11
aF0.085000000000000006
aF0.5
aF0.029999999999999999
aF1
aF0.29999999999999999
aF0.050000000000000003
aF0.31
aF0.90000000000000002
aF0.28999999999999998
aF0.023
aF0.081000000000000003
aF0.044999999999999998
aF0.10000000000000001
aF0.14000000000000001
aF0.11
aF0.23000000000000001
aF0.19
aF0.88
aF0.067000000000000004
aF0.017999999999999999
aF0.021000000000000001
aF0.012
aF0.063
aF0.0077999999999999996
aF0.032000000000000001
aF0.0077999999999999996
aF0.035000000000000003
aF0.035000000000000003
aF0.0077999999999999996
aF1
aF0.039
aF0.068000000000000005
aF0.058999999999999997
aF0.042000000000000003
aF0.062
aF0.014999999999999999
aF0.012
aF0.19
aF0.073999999999999996
aF0.11
aF0.072999999999999995
aF0.48999999999999999
aF0.068000000000000005
aF0.094
aF0.16
aF0.096000000000000002
aF0.42999999999999999
aF1
aF0.32000000000000001
aF0.088999999999999996
aF0.27000000000000002
aF0.073999999999999996
aF0.11
aF0.14000000000000001
aF0.19
aF0.60999999999999999
aF0.28999999999999998
aF0.41999999999999998
aF0.088999999999999996
aF0.17999999999999999
aF0.086999999999999994
aF0.10000000000000001
aF0.17000000000000001
aF0.16
aF1
aF0.097000000000000003
aF0.10000000000000001
aF0.27000000000000002
aF0.079000000000000001
aF0.11
aF0.087999999999999995
aF0.058999999999999997
aF0.089999999999999997
aF0.54000000000000004
aF0.17000000000000001
aF0.32000000000000001
aF0.085000000000000006
aF0.56999999999999995
aF0.37
aF0.25
aF0.34000000000000002
aF0.63
aF0.34999999999999998
aF0.19
aF0.26000000000000001
aF0.12
aF0.23000000000000001
aF0.97999999999999998
aF1
aF0.37
aF0.28000000000000003
aF0.23000000000000001
aF0.27000000000000002
aF0.20999999999999999
aF0.22
aF0.28999999999999998
aF0.22
aF0.20999999999999999
aF0.14999999999999999
aF0.13
aF0.20999999999999999
aF1
aF0.33000000000000002
aF0.26000000000000001
aF0.28000000000000003
aF0.14000000000000001
aF0.28999999999999998
aF0.17999999999999999
aF0.16
aF0.14000000000000001
aF0.12
aF0.087999999999999995
aF0.33000000000000002
aF0.16
aF0.34000000000000002
aF0.98999999999999999
aF0.060999999999999999
aF0.22
aF0.17999999999999999
aF0.12
aF0.35999999999999999
aF0.32000000000000001
aF0.12
aF0.14999999999999999
aF0.47999999999999998
aF0.072999999999999995
aF0.20999999999999999
aF0.13
aF0.28000000000000003
aF0.31
aF0.35999999999999999
aF0.16
aF0.22
aF0.27000000000000002
aF0.56999999999999995
aF1
aF0.32000000000000001
aF1
aF0.086999999999999994
aF0.072999999999999995
aF0.098000000000000004
aF0.13
aF0.098000000000000004
aF0.14999999999999999
aF0.55000000000000004
aF0.35999999999999999
aF0.31
aF0.28000000000000003
aF0.14000000000000001
aF0.64000000000000001
aF0.10000000000000001
aF0.071999999999999995
aF0.20000000000000001
aF0.26000000000000001
aF0.37
aF0.047
aF0.16
aF0.14999999999999999
aF0.024
aF0.0064000000000000003
aF0.0094000000000000004
aF1
aF0.029000000000000001
aF0.0064000000000000003
aF0.025000000000000001
aF0.0064000000000000003
aF0.043999999999999997
aF0.23000000000000001
aF0.0099000000000000008
aF0.0064000000000000003
aF0.0064000000000000003
aF0.01
aF0.024
aF0.021000000000000001
aF0.052999999999999999
aF0.012
aF0.64000000000000001
as(S'HLA_B-5101'
I9
tp4
(lp5
F0
aF0.070999999999999994
aF0.19
aF0.27000000000000002
aF0.10000000000000001
aF0.25
aF0.028000000000000001
aF0.14999999999999999
aF0.23000000000000001
aF0.051999999999999998
aF0.40999999999999998
aF0.32000000000000001
aF0.19
aF0.036999999999999998
aF0.036999999999999998
aF0.028000000000000001
aF0.050999999999999997
aF0.088999999999999996
aF0.17000000000000001
aF0.11
aF1
aF0.54000000000000004
aF0.079000000000000001
aF0.021999999999999999
aF0.041000000000000002
aF0.085999999999999993
aF0.16
aF0.029000000000000001
aF0.047
aF0.021999999999999999
aF0.021999999999999999
aF0.039
aF0.021999999999999999
aF1
aF0.11
aF0.021999999999999999
aF0.10000000000000001
aF0.042000000000000003
aF0.10000000000000001
aF0.050000000000000003
aF0.052999999999999999
aF0.46999999999999997
aF0.23999999999999999
aF0.070000000000000007
aF0.070000000000000007
aF0.65000000000000002
aF0.078
aF0.59999999999999998
aF0.39000000000000001
aF0.20000000000000001
aF0.54000000000000004
aF1
aF0.27000000000000002
aF0.41999999999999998
aF0.20000000000000001
aF0.33000000000000002
aF0.16
aF0.14000000000000001
aF0.25
aF0.46999999999999997
aF0.38
aF0.39000000000000001
aF0.26000000000000001
aF0.73999999999999999
aF0.46000000000000002
aF0.64000000000000001
aF0.46999999999999997
aF0.17999999999999999
aF1
aF0.90000000000000002
aF0.68999999999999995
aF0.46000000000000002
aF0.41999999999999998
aF0.55000000000000004
aF0.56999999999999995
aF0.40000000000000002
aF0.92000000000000004
aF0.77000000000000002
aF0.67000000000000004
aF0.81999999999999995
aF0.88
aF1
aF0.38
aF0.34000000000000002
aF0.20000000000000001
aF0.28999999999999998
aF0.31
aF0.34999999999999998
aF0.33000000000000002
aF0.28999999999999998
aF0.29999999999999999
aF0.45000000000000001
aF0.40000000000000002
aF0.5
aF0.28999999999999998
aF0.48999999999999999
aF0.34999999999999998
aF0.51000000000000001
aF0.35999999999999999
aF0.19
aF0.26000000000000001
aF0.42999999999999999
aF0.26000000000000001
aF0.064000000000000001
aF0.12
aF1
aF0.28999999999999998
aF0.33000000000000002
aF0.73999999999999999
aF0.54000000000000004
aF0.55000000000000004
aF0.52000000000000002
aF0.40000000000000002
aF0.067000000000000004
aF0.39000000000000001
aF0.27000000000000002
aF0.32000000000000001
aF0.32000000000000001
aF0.20000000000000001
aF0.10000000000000001
aF0.097000000000000003
aF0.23999999999999999
aF0.28000000000000003
aF0.14999999999999999
aF0.37
aF0.42999999999999999
aF0.33000000000000002
aF0.27000000000000002
aF0.58999999999999997
aF0.12
aF0.65000000000000002
aF0.68000000000000005
aF0.46000000000000002
aF0.53000000000000003
aF0.5
aF0.56999999999999995
aF0.51000000000000001
aF0.57999999999999996
aF0.56999999999999995
aF0.91000000000000003
aF1
aF0.52000000000000002
aF0.38
aF0.17000000000000001
aF0.34000000000000002
aF1
aF0.20000000000000001
aF0.33000000000000002
aF0.20999999999999999
aF0.20000000000000001
aF0.85999999999999999
aF0.32000000000000001
aF0.33000000000000002
aF0.51000000000000001
aF0.32000000000000001
aF0.35999999999999999
aF0.44
aF0.56999999999999995
aF0.32000000000000001
aF0.20000000000000001
aF0.67000000000000004
aF0.0091000000000000004
aF0.0030000000000000001
aF0.0016000000000000001
aF0.0022000000000000001
aF0.0097000000000000003
aF0.0016999999999999999
aF0.0011000000000000001
aF1
aF0.0025999999999999999
aF0.0051999999999999998
aF0.0051999999999999998
aF0.00093999999999999997
aF0.0028
aF0.00093999999999999997
aF0.00093999999999999997
aF0.0020999999999999999
aF0.0018
aF0.11
aF0.0035999999999999999
aF0.0050000000000000001
as(S'H-2_Kd'
I9
tp6
(lp7
F0
aF0.39000000000000001
aF0.28999999999999998
aF0.049000000000000002
aF0.035000000000000003
aF0.68000000000000005
aF0.29999999999999999
aF0.31
aF0.35999999999999999
aF0.38
aF0.47999999999999998
aF0.81000000000000005
aF0.34000000000000002
aF0.058999999999999997
aF0.22
aF0.35999999999999999
aF0.89000000000000001
aF0.44
aF0.33000000000000002
aF0.98999999999999999
aF1
aF0.00059000000000000003
aF0.0015
aF0.00059000000000000003
aF0.00059000000000000003
aF0.080000000000000002
aF0.00085999999999999998
aF0.001
aF0.0030999999999999999
aF0.00059000000000000003
aF0.0054000000000000003
aF0.0038999999999999998
aF0.00059000000000000003
aF0.00059000000000000003
aF0.00059000000000000003
aF0.00084000000000000003
aF0.00072000000000000005
aF0.00059000000000000003
aF0.00088999999999999995
aF0.0061000000000000004
aF1
aF0.017000000000000001
aF0.13
aF0.14000000000000001
aF0.071999999999999995
aF0.25
aF0.11
aF0.16
aF0.28000000000000003
aF0.17999999999999999
aF1
aF0.75
aF0.23000000000000001
aF0.021999999999999999
aF0.19
aF0.14999999999999999
aF0.19
aF0.17999999999999999
aF0.20999999999999999
aF0.32000000000000001
aF0.16
aF1
aF0.11
aF0.097000000000000003
aF0.17999999999999999
aF0.098000000000000004
aF0.14000000000000001
aF0.22
aF0.22
aF0.23000000000000001
aF0.17000000000000001
aF0.22
aF0.23999999999999999
aF0.47999999999999998
aF0.41999999999999998
aF0.20000000000000001
aF0.28000000000000003
aF0.20999999999999999
aF0.19
aF0.040000000000000001
aF0.14000000000000001
aF0.37
aF0.19
aF0.14999999999999999
aF0.031
aF0.13
aF0.29999999999999999
aF0.064000000000000001
aF0.19
aF0.010999999999999999
aF0.17999999999999999
aF0.59999999999999998
aF0.20999999999999999
aF0.094
aF0.14999999999999999
aF0.023
aF1
aF0.41999999999999998
aF0.23999999999999999
aF0.20999999999999999
aF0.014999999999999999
aF0.26000000000000001
aF0.26000000000000001
aF0.066000000000000003
aF0.083000000000000004
aF0.39000000000000001
aF0.29999999999999999
aF0.31
aF0.35999999999999999
aF0.35999999999999999
aF0.34000000000000002
aF0.31
aF0.22
aF0.14999999999999999
aF0.19
aF1
aF0.25
aF0.26000000000000001
aF0.32000000000000001
aF0.28999999999999998
aF0.26000000000000001
aF0.17000000000000001
aF0.12
aF0.050999999999999997
aF0.14000000000000001
aF0.087999999999999995
aF0.28000000000000003
aF0.33000000000000002
aF0.044999999999999998
aF0.023
aF0.10000000000000001
aF0.080000000000000002
aF0.60999999999999999
aF0.021000000000000001
aF0.25
aF0.11
aF0.92000000000000004
aF1
aF0.13
aF0.056000000000000001
aF0.11
aF1
aF0.28000000000000003
aF0.62
aF0.55000000000000004
aF0.66000000000000003
aF0.63
aF0.096000000000000002
aF0.29999999999999999
aF0.23000000000000001
aF0.42999999999999999
aF0.42999999999999999
aF0.40000000000000002
aF0.75
aF0.54000000000000004
aF0.48999999999999999
aF0.60999999999999999
aF0.52000000000000002
aF0.37
aF0.26000000000000001
aF0.56000000000000005
aF0.068000000000000005
aF0.021999999999999999
aF0.0035999999999999999
aF0.012
aF0.075999999999999998
aF0.0043
aF0.0040000000000000001
aF1
aF0.051999999999999998
aF0.56999999999999995
aF0.13
aF0.01
aF0.075999999999999998
aF0.0045999999999999999
aF0.0028999999999999998
aF0.0066
aF0.012999999999999999
aF0.44
aF0.0097000000000000003
aF0.0028999999999999998
as(S'HLA_B-5802'
I9
tp8
(lp9
F0
aF0.065000000000000002
aF0.048000000000000001
aF0.068000000000000005
aF0.066000000000000003
aF0.081000000000000003
aF0.14000000000000001
aF0.025999999999999999
aF0.17000000000000001
aF1
aF0.043999999999999997
aF0.20999999999999999
aF0.063
aF0.058999999999999997
aF0.033000000000000002
aF0.52000000000000002
aF0.097000000000000003
aF0.062
aF0.20999999999999999
aF0.11
aF0.46000000000000002
aF0.035000000000000003
aF0.050999999999999997
aF0.029999999999999999
aF0.066000000000000003
aF0.029999999999999999
aF0.076999999999999999
aF0.029999999999999999
aF0.11
aF0.044999999999999998
aF0.13
aF0.17000000000000001
aF0.20000000000000001
aF0.050999999999999997
aF0.20999999999999999
aF0.029999999999999999
aF1
aF0.79000000000000004
aF0.12
aF0.098000000000000004
aF0.029999999999999999
aF0.047
aF0.37
aF0.047
aF0.049000000000000002
aF0.40999999999999998
aF0.17000000000000001
aF0.41999999999999998
aF1
aF0.081000000000000003
aF0.58999999999999997
aF0.56999999999999995
aF0.098000000000000004
aF0.047
aF0.098000000000000004
aF0.38
aF0.066000000000000003
aF0.16
aF0.56000000000000005
aF0.94999999999999996
aF0.71999999999999997
aF0.51000000000000001
aF0.52000000000000002
aF0.069000000000000006
aF0.17999999999999999
aF0.45000000000000001
aF0.14999999999999999
aF0.32000000000000001
aF0.33000000000000002
aF0.55000000000000004
aF0.5
aF0.44
aF0.55000000000000004
aF0.5
aF0.31
aF0.95999999999999996
aF1
aF0.73999999999999999
aF0.53000000000000003
aF0.71999999999999997
aF0.48999999999999999
aF0.56000000000000005
aF0.53000000000000003
aF0.12
aF0.23000000000000001
aF0.088999999999999996
aF0.37
aF0.73999999999999999
aF0.79000000000000004
aF0.57999999999999996
aF0.063
aF0.41999999999999998
aF0.31
aF0.074999999999999997
aF0.063
aF0.20000000000000001
aF0.063
aF0.16
aF0.87
aF1
aF0.62
aF0.91000000000000003
aF0.38
aF0.14999999999999999
aF0.14000000000000001
aF0.35999999999999999
aF0.16
aF0.27000000000000002
aF0.071999999999999995
aF0.20999999999999999
aF0.31
aF0.23999999999999999
aF1
aF0.39000000000000001
aF0.46000000000000002
aF0.35999999999999999
aF0.055
aF0.17000000000000001
aF0.26000000000000001
aF0.28999999999999998
aF0.64000000000000001
aF0.032000000000000001
aF0.024
aF0.021999999999999999
aF0.091999999999999998
aF0.084000000000000005
aF0.024
aF0.088999999999999996
aF0.058000000000000003
aF0.031
aF0.014
aF0.34999999999999998
aF0.091999999999999998
aF1
aF0.22
aF0.20999999999999999
aF0.043999999999999997
aF0.057000000000000002
aF0.072999999999999995
aF0.17999999999999999
aF0.069000000000000006
aF0.31
aF0.20999999999999999
aF0.086999999999999994
aF0.29999999999999999
aF0.33000000000000002
aF0.87
aF0.26000000000000001
aF0.40999999999999998
aF0.14999999999999999
aF0.56999999999999995
aF0.32000000000000001
aF0.27000000000000002
aF0.16
aF0.29999999999999999
aF0.37
aF0.29999999999999999
aF0.66000000000000003
aF0.26000000000000001
aF0.16
aF1
aF0.014
aF0.017999999999999999
aF0.014
aF0.017999999999999999
aF0.44
aF0.014
aF0.019
aF1
aF0.017999999999999999
aF0.31
aF0.16
aF0.025000000000000001
aF0.017999999999999999
aF0.025000000000000001
aF0.014
aF0.014
aF0.014
aF0.024
aF0.14000000000000001
aF0.043999999999999997
as(S'HLA_A-0201'
I9
tp10
(lp11
F0
aF0.11
aF0.032000000000000001
aF0.0077999999999999996
aF0.014999999999999999
aF1
aF0.088999999999999996
aF0.0047999999999999996
aF0.12
aF0.11
aF0.053999999999999999
aF0.25
aF0.067000000000000004
aF0.0032000000000000002
aF0.019
aF0.084000000000000005
aF0.10000000000000001
aF0.094
aF0.062
aF0.057000000000000002
aF0.11
aF0.0018
aF0.0016000000000000001
aF0.0016000000000000001
aF0.029999999999999999
aF0.0041000000000000003
aF0.0089999999999999993
aF0.0016000000000000001
aF0.057000000000000002
aF0.012
aF1
aF0.19
aF0.0061999999999999998
aF0.0033999999999999998
aF0.14000000000000001
aF0.0016000000000000001
aF0.0091999999999999998
aF0.037999999999999999
aF0.098000000000000004
aF0.0023999999999999998
aF0.0077999999999999996
aF0.42999999999999999
aF0.22
aF0.46000000000000002
aF0.036999999999999998
aF0.63
aF0.098000000000000004
aF0.27000000000000002
aF0.54000000000000004
aF0.016
aF0.56999999999999995
aF1
aF0.16
aF0.056000000000000001
aF0.20000000000000001
aF0.019
aF0.17000000000000001
aF0.14000000000000001
aF0.25
aF0.57999999999999996
aF0.88
aF0.90000000000000002
aF0.20000000000000001
aF0.91000000000000003
aF0.65000000000000002
aF0.35999999999999999
aF0.54000000000000004
aF0.17000000000000001
aF0.32000000000000001
aF0.37
aF0.66000000000000003
aF0.28999999999999998
aF0.81999999999999995
aF0.79000000000000004
aF0.57999999999999996
aF0.23000000000000001
aF1
aF0.19
aF0.28000000000000003
aF0.64000000000000001
aF0.29999999999999999
aF0.38
aF0.76000000000000001
aF0.11
aF0.19
aF0.32000000000000001
aF0.27000000000000002
aF0.17999999999999999
aF0.29999999999999999
aF0.17999999999999999
aF0.26000000000000001
aF1
aF0.33000000000000002
aF0.11
aF0.10000000000000001
aF0.22
aF0.17999999999999999
aF0.20000000000000001
aF0.26000000000000001
aF0.33000000000000002
aF0.23999999999999999
aF0.70999999999999996
aF0.42999999999999999
aF0.20999999999999999
aF0.83999999999999997
aF0.35999999999999999
aF0.14999999999999999
aF0.20999999999999999
aF0.83999999999999997
aF0.087999999999999995
aF0.56000000000000005
aF0.35999999999999999
aF0.71999999999999997
aF0.33000000000000002
aF0.56999999999999995
aF0.13
aF0.19
aF1
aF0.72999999999999998
aF0.20000000000000001
aF0.14999999999999999
aF0.33000000000000002
aF0.26000000000000001
aF0.14999999999999999
aF0.54000000000000004
aF0.69999999999999996
aF0.19
aF0.34000000000000002
aF1
aF0.041000000000000002
aF0.34999999999999998
aF0.34999999999999998
aF0.38
aF0.95999999999999996
aF0.69999999999999996
aF0.071999999999999995
aF0.53000000000000003
aF0.23999999999999999
aF0.28000000000000003
aF0.63
aF0.94999999999999996
aF0.26000000000000001
aF0.17999999999999999
aF0.16
aF0.48999999999999999
aF0.78000000000000003
aF0.35999999999999999
aF0.16
aF0.082000000000000003
aF0.20000000000000001
aF0.35999999999999999
aF0.26000000000000001
aF0.17999999999999999
aF1
aF0.19
aF0.31
aF0.38
aF0.27000000000000002
aF0.23999999999999999
aF0.34999999999999998
aF0.60999999999999999
aF0.11
aF0.0047000000000000002
aF0.0028999999999999998
aF0.037999999999999999
aF0.084000000000000005
aF0.0080000000000000002
aF0.0018
aF0.33000000000000002
aF0.0016999999999999999
aF0.17999999999999999
aF0.074999999999999997
aF0.0028
aF0.0028999999999999998
aF0.0023
aF0.0016000000000000001
aF0.0080000000000000002
aF0.014999999999999999
aF1
aF0.0053
aF0.002
as(S'H-2_Db'
I9
tp12
(lp13
F0
aF0.14000000000000001
aF0.16
aF0.033000000000000002
aF0.029999999999999999
aF1
aF0.096000000000000002
aF0.17000000000000001
aF0.13
aF0.14000000000000001
aF0.20000000000000001
aF0.17999999999999999
aF0.31
aF0.029999999999999999
aF0.059999999999999998
aF0.12
aF0.12
aF0.096000000000000002
aF0.094
aF0.16
aF0.56999999999999995
aF0.64000000000000001
aF0.22
aF0.035999999999999997
aF0.035999999999999997
aF0.085999999999999993
aF0.41999999999999998
aF0.099000000000000005
aF0.075999999999999998
aF0.051999999999999998
aF0.17999999999999999
aF0.72999999999999998
aF0.11
aF0.035999999999999997
aF1
aF0.035999999999999997
aF0.80000000000000004
aF0.22
aF0.20000000000000001
aF0.10000000000000001
aF0.070999999999999994
aF0.021999999999999999
aF0.098000000000000004
aF0.021999999999999999
aF0.032000000000000001
aF0.099000000000000005
aF0.13
aF0.20000000000000001
aF0.23999999999999999
aF0.028000000000000001
aF1
aF0.31
aF0.25
aF0.38
aF0.098000000000000004
aF0.023
aF0.084000000000000005
aF0.057000000000000002
aF0.17000000000000001
aF0.17999999999999999
aF0.23999999999999999
aF0.68999999999999995
aF1
aF0.071999999999999995
aF0.34999999999999998
aF0.38
aF0.087999999999999995
aF0.28999999999999998
aF0.87
aF0.42999999999999999
aF0.95999999999999996
aF0.65000000000000002
aF0.17999999999999999
aF0.14999999999999999
aF0.60999999999999999
aF0.63
aF0.82999999999999996
aF0.57999999999999996
aF0.87
aF0.56000000000000005
aF0.63
aF0.045999999999999999
aF0.059999999999999998
aF0.058000000000000003
aF0.021000000000000001
aF0.043999999999999997
aF0.064000000000000001
aF0.066000000000000003
aF0.02
aF0.032000000000000001
aF0.10000000000000001
aF0.085999999999999993
aF1
aF0.037999999999999999
aF0.023
aF0.02
aF0.079000000000000001
aF0.017999999999999999
aF0.021000000000000001
aF0.012999999999999999
aF0.012999999999999999
aF0.62
aF0.66000000000000003
aF0.28999999999999998
aF0.42999999999999999
aF0.69999999999999996
aF0.76000000000000001
aF0.35999999999999999
aF0.77000000000000002
aF0.51000000000000001
aF0.64000000000000001
aF0.52000000000000002
aF0.56000000000000005
aF0.23000000000000001
aF0.55000000000000004
aF0.5
aF0.69999999999999996
aF0.55000000000000004
aF0.51000000000000001
aF1
aF0.68000000000000005
aF0.65000000000000002
aF0.28000000000000003
aF0.66000000000000003
aF0.95999999999999996
aF0.71999999999999997
aF0.45000000000000001
aF0.062
aF0.33000000000000002
aF0.062
aF0.26000000000000001
aF0.23999999999999999
aF0.40999999999999998
aF0.26000000000000001
aF0.83999999999999997
aF0.14999999999999999
aF0.34000000000000002
aF0.67000000000000004
aF0.56999999999999995
aF0.31
aF1
aF0.5
aF0.12
aF0.089999999999999997
aF0.33000000000000002
aF0.79000000000000004
aF0.042999999999999997
aF0.072999999999999995
aF0.14000000000000001
aF0.075999999999999998
aF0.46000000000000002
aF0.17000000000000001
aF0.099000000000000005
aF1
aF0.16
aF0.068000000000000005
aF0.13
aF0.23999999999999999
aF0.34999999999999998
aF0.13
aF0.96999999999999997
aF0.091999999999999998
aF0.032000000000000001
aF0.010999999999999999
aF0.010999999999999999
aF0.13
aF0.012
aF0.010999999999999999
aF1
aF0.010999999999999999
aF0.25
aF0.66000000000000003
aF0.012999999999999999
aF0.014999999999999999
aF0.010999999999999999
aF0.010999999999999999
aF0.010999999999999999
aF0.016
aF0.17000000000000001
aF0.010999999999999999
aF0.010999999999999999
as(S'HLA_B-5401'
I9
tp14
(lp15
F0
aF0.014
aF0.027
aF0.050000000000000003
aF0.040000000000000001
aF0.73999999999999999
aF0.0071000000000000004
aF0.34000000000000002
aF0.27000000000000002
aF0.036999999999999998
aF0.19
aF1
aF0.12
aF0.0097000000000000003
aF0.031
aF0.027
aF0.056000000000000001
aF0.025999999999999999
aF0.032000000000000001
aF0.14000000000000001
aF0.12
aF1
aF0.0051000000000000004
aF0.00089999999999999998
aF0.0025999999999999999
aF0.00055000000000000003
aF0.010999999999999999
aF0.0014
aF0.0071000000000000004
aF0.0038
aF0.0037000000000000002
aF0.0071999999999999998
aF0.0018
aF0.19
aF0.0033999999999999998
aF0.0041999999999999997
aF0.050000000000000003
aF0.028000000000000001
aF0.024
aF0.0040000000000000001
aF0.0038999999999999998
aF0.00076999999999999996
aF0.014999999999999999
aF0.0033
aF0.0048999999999999998
aF0.11
aF0.025000000000000001
aF0.012999999999999999
aF0.083000000000000004
aF0.014999999999999999
aF0.040000000000000001
aF0.23999999999999999
aF0.14000000000000001
aF0.012999999999999999
aF0.055
aF0.062
aF0.014
aF0.012
aF0.034000000000000002
aF1
aF0.11
aF0.40999999999999998
aF0.22
aF0.28000000000000003
aF0.14999999999999999
aF0.31
aF0.062
aF0.20999999999999999
aF0.16
aF0.41999999999999998
aF0.73999999999999999
aF0.13
aF0.20000000000000001
aF0.13
aF0.092999999999999999
aF0.069000000000000006
aF0.14000000000000001
aF0.60999999999999999
aF1
aF1
aF0.26000000000000001
aF0.28999999999999998
aF0.39000000000000001
aF0.27000000000000002
aF0.26000000000000001
aF1
aF0.19
aF0.19
aF0.13
aF0.049000000000000002
aF0.14999999999999999
aF0.71999999999999997
aF0.34000000000000002
aF0.51000000000000001
aF0.40000000000000002
aF0.20999999999999999
aF0.17999999999999999
aF0.085000000000000006
aF0.042000000000000003
aF0.14000000000000001
aF0.084000000000000005
aF0.20000000000000001
aF0.10000000000000001
aF0.044999999999999998
aF0.065000000000000002
aF0.29999999999999999
aF0.14000000000000001
aF1
aF0.81000000000000005
aF0.62
aF0.20999999999999999
aF0.42999999999999999
aF0.28999999999999998
aF0.14999999999999999
aF0.11
aF0.11
aF0.17999999999999999
aF0.32000000000000001
aF0.17000000000000001
aF0.17999999999999999
aF0.19
aF0.45000000000000001
aF0.16
aF0.28000000000000003
aF0.26000000000000001
aF0.17000000000000001
aF0.072999999999999995
aF0.27000000000000002
aF0.14999999999999999
aF0.088999999999999996
aF0.13
aF0.065000000000000002
aF0.39000000000000001
aF0.32000000000000001
aF1
aF0.13
aF0.098000000000000004
aF0.33000000000000002
aF0.77000000000000002
aF0.22
aF0.32000000000000001
aF0.5
aF0.73999999999999999
aF0.037999999999999999
aF0.13
aF0.080000000000000002
aF0.083000000000000004
aF0.042999999999999997
aF0.11
aF0.099000000000000005
aF0.052999999999999999
aF0.044999999999999998
aF0.075999999999999998
aF0.71999999999999997
aF0.11
aF0.058999999999999997
aF1
aF0.20000000000000001
aF0.10000000000000001
aF0.050999999999999997
aF0.0018
aF1
aF0.014
aF0.017999999999999999
aF0.0041999999999999997
aF0.0053
aF0.027
aF0.001
aF0.031
aF0.0012999999999999999
aF0.0016000000000000001
aF0.0023999999999999998
aF0.0051000000000000004
aF0.023
aF0.00064999999999999997
aF0.0011999999999999999
aF0.041000000000000002
aF0.021000000000000001
aF0.23999999999999999
aF0.0011999999999999999
aF0.0023
as(S'HLA_A-6802'
I9
tp16
(lp17
F0
aF0.031
aF0.13
aF0.20999999999999999
aF1
aF0.53000000000000003
aF0.021999999999999999
aF0.53000000000000003
aF0.075999999999999998
aF0.012999999999999999
aF0.070999999999999994
aF0.75
aF0.23999999999999999
aF0.0050000000000000001
aF0.039
aF0.043999999999999997
aF0.40999999999999998
aF0.28999999999999998
aF0.037999999999999999
aF0.19
aF0.23999999999999999
aF0.12
aF0.0076
aF0.0074999999999999997
aF0.0067999999999999996
aF0.017000000000000001
aF0.014
aF0.0030999999999999999
aF0.14999999999999999
aF0.010999999999999999
aF0.097000000000000003
aF0.055
aF0.034000000000000002
aF0.041000000000000002
aF0.0080999999999999996
aF0.0068999999999999999
aF0.27000000000000002
aF0.63
aF1
aF0.021999999999999999
aF0.017000000000000001
aF0.0051000000000000004
aF0.070999999999999994
aF0.025000000000000001
aF0.045999999999999999
aF0.81999999999999995
aF0.060999999999999999
aF0.14000000000000001
aF0.38
aF0.11
aF0.10000000000000001
aF1
aF0.27000000000000002
aF0.042999999999999997
aF0.12
aF0.017999999999999999
aF0.5
aF0.14000000000000001
aF0.64000000000000001
aF0.69999999999999996
aF0.26000000000000001
aF0.23999999999999999
aF0.13
aF0.31
aF0.14000000000000001
aF0.73999999999999999
aF0.26000000000000001
aF0.29999999999999999
aF0.087999999999999995
aF0.095000000000000001
aF0.14000000000000001
aF0.55000000000000004
aF0.27000000000000002
aF0.37
aF0.17999999999999999
aF0.057000000000000002
aF1
aF0.20000000000000001
aF0.14999999999999999
aF0.56000000000000005
aF0.44
aF0.47999999999999998
aF0.65000000000000002
aF0.20000000000000001
aF0.20000000000000001
aF0.87
aF1
aF0.46000000000000002
aF0.88
aF0.14000000000000001
aF0.42999999999999999
aF0.78000000000000003
aF0.29999999999999999
aF0.16
aF0.076999999999999999
aF0.19
aF0.34000000000000002
aF0.043999999999999997
aF0.51000000000000001
aF0.26000000000000001
aF0.27000000000000002
aF0.81999999999999995
aF0.44
aF0.68999999999999995
aF0.75
aF1
aF0.29999999999999999
aF0.11
aF0.38
aF0.23999999999999999
aF0.16
aF0.14000000000000001
aF0.45000000000000001
aF0.56999999999999995
aF0.085000000000000006
aF0.42999999999999999
aF0.56999999999999995
aF0.83999999999999997
aF0.59999999999999998
aF0.44
aF0.42999999999999999
aF0.37
aF0.11
aF0.37
aF0.41999999999999998
aF0.46000000000000002
aF0.070999999999999994
aF0.48999999999999999
aF0.55000000000000004
aF0.085999999999999993
aF0.56000000000000005
aF0.51000000000000001
aF0.54000000000000004
aF0.37
aF0.45000000000000001
aF0.11
aF0.40000000000000002
aF0.59999999999999998
aF0.80000000000000004
aF1
aF0.62
aF1
aF0.19
aF0.092999999999999999
aF0.14000000000000001
aF0.31
aF0.31
aF0.045999999999999999
aF0.050999999999999997
aF0.12
aF0.16
aF0.16
aF0.17999999999999999
aF0.33000000000000002
aF0.14000000000000001
aF0.13
aF0.27000000000000002
aF0.37
aF0.17000000000000001
aF0.16
aF0.22
aF0.26000000000000001
aF0.044999999999999998
aF0.014
aF0.036999999999999998
aF0.051999999999999998
aF0.017000000000000001
aF0.0068999999999999999
aF0.23000000000000001
aF0.0048999999999999998
aF0.23999999999999999
aF0.094
aF0.014999999999999999
aF0.049000000000000002
aF0.016
aF0.012
aF0.035999999999999997
aF0.042999999999999997
aF1
aF0.044999999999999998
aF0.01
as(S'H-2_Dd'
I9
tp18
(lp19
F0
aF0.20000000000000001
aF0.26000000000000001
aF0.058999999999999997
aF0.16
aF0.34000000000000002
aF0.14999999999999999
aF0.20999999999999999
aF0.39000000000000001
aF0.17999999999999999
aF0.28999999999999998
aF0.75
aF0.19
aF0.095000000000000001
aF0.39000000000000001
aF0.40999999999999998
aF0.23999999999999999
aF0.25
aF0.80000000000000004
aF1
aF0.40999999999999998
aF0.025000000000000001
aF0.012999999999999999
aF0.012999999999999999
aF0.014
aF0.073999999999999996
aF1
aF0.060999999999999999
aF0.017999999999999999
aF0.092999999999999999
aF0.035000000000000003
aF0.017999999999999999
aF0.017999999999999999
aF0.064000000000000001
aF0.014999999999999999
aF0.028000000000000001
aF0.021999999999999999
aF0.019
aF0.016
aF0.060999999999999999
aF0.012999999999999999
aF0.0028
aF0.0028
aF0.012
aF0.0030000000000000001
aF0.0071999999999999998
aF0.0040000000000000001
aF0.0028
aF0.0041000000000000003
aF0.0033
aF0.0040000000000000001
aF0.0094999999999999998
aF0.0028
aF1
aF0.012
aF0.0030999999999999999
aF0.0061000000000000004
aF0.0047999999999999996
aF0.0094000000000000004
aF0.0028
aF0.0028
aF0.52000000000000002
aF0.56000000000000005
aF0.29999999999999999
aF0.38
aF0.95999999999999996
aF0.17000000000000001
aF0.53000000000000003
aF0.79000000000000004
aF0.39000000000000001
aF0.52000000000000002
aF0.48999999999999999
aF0.40000000000000002
aF0.14999999999999999
aF0.48999999999999999
aF0.62
aF0.57999999999999996
aF0.66000000000000003
aF0.47999999999999998
aF0.54000000000000004
aF1
aF0.37
aF0.044999999999999998
aF0.049000000000000002
aF0.058999999999999997
aF0.16
aF0.11
aF0.64000000000000001
aF0.28000000000000003
aF0.44
aF0.28000000000000003
aF0.19
aF0.19
aF0.023
aF0.14999999999999999
aF1
aF0.20999999999999999
aF0.17999999999999999
aF0.25
aF0.098000000000000004
aF0.23999999999999999
aF0.51000000000000001
aF0.42999999999999999
aF0.28999999999999998
aF0.31
aF0.79000000000000004
aF0.47999999999999998
aF0.47999999999999998
aF0.46000000000000002
aF0.29999999999999999
aF0.54000000000000004
aF0.47999999999999998
aF0.39000000000000001
aF0.094
aF0.51000000000000001
aF0.41999999999999998
aF0.63
aF1
aF0.63
aF0.77000000000000002
aF0.82999999999999996
aF0.036999999999999998
aF0.048000000000000001
aF0.052999999999999999
aF0.059999999999999998
aF1
aF0.031
aF0.074999999999999997
aF0.048000000000000001
aF0.0067000000000000002
aF0.035999999999999997
aF0.024
aF0.095000000000000001
aF0.02
aF0.057000000000000002
aF0.012999999999999999
aF0.037999999999999999
aF0.029000000000000001
aF0.044999999999999998
aF0.043999999999999997
aF0.075999999999999998
aF0.93000000000000005
aF0.78000000000000003
aF0.44
aF0.65000000000000002
aF0.75
aF0.62
aF0.11
aF0.25
aF0.23999999999999999
aF0.80000000000000004
aF0.46999999999999997
aF0.48999999999999999
aF0.72999999999999998
aF0.68000000000000005
aF0.46000000000000002
aF1
aF0.57999999999999996
aF0.52000000000000002
aF0.27000000000000002
aF0.40000000000000002
aF0.028000000000000001
aF0.10000000000000001
aF0.0055999999999999999
aF0.016
aF1
aF0.035000000000000003
aF0.0055999999999999999
aF0.25
aF0.034000000000000002
aF0.28000000000000003
aF0.089999999999999997
aF0.0055999999999999999
aF0.0055999999999999999
aF0.0055999999999999999
aF0.0055999999999999999
aF0.0055999999999999999
aF0.0055999999999999999
aF0.040000000000000001
aF0.070999999999999994
aF0.021999999999999999
as(S'H-2_Kk'
p20
I9
tp21
(lp22
F0
aF0.17999999999999999
aF0.51000000000000001
aF0.42999999999999999
aF0.77000000000000002
aF1
aF0.14000000000000001
aF0.91000000000000003
aF0.27000000000000002
aF0.082000000000000003
aF0.48999999999999999
aF0.78000000000000003
aF0.80000000000000004
aF0.051999999999999998
aF0.45000000000000001
aF0.11
aF0.54000000000000004
aF0.65000000000000002
aF0.13
aF0.80000000000000004
aF0.63
aF0.047
aF0.01
aF0.13
aF1
aF0.016
aF0.0063
aF0.0051999999999999998
aF0.0025999999999999999
aF0.0030999999999999999
aF0.062
aF0.012
aF0.0053
aF0.017000000000000001
aF0.052999999999999999
aF0.0071000000000000004
aF0.014
aF0.0085000000000000006
aF0.0061999999999999998
aF0.0068999999999999999
aF0.0099000000000000008
aF0.0061000000000000004
aF0.14999999999999999
aF0.058999999999999997
aF0.27000000000000002
aF0.39000000000000001
aF0.19
aF0.71999999999999997
aF0.26000000000000001
aF0.39000000000000001
aF0.69999999999999996
aF1
aF0.40000000000000002
aF0.035000000000000003
aF0.41999999999999998
aF0.19
aF0.42999999999999999
aF0.11
aF0.26000000000000001
aF0.47999999999999998
aF0.52000000000000002
aF0.63
aF0.37
aF0.46000000000000002
aF0.40999999999999998
aF0.38
aF0.19
aF0.13
aF0.39000000000000001
aF0.26000000000000001
aF0.95999999999999996
aF0.41999999999999998
aF0.22
aF0.40999999999999998
aF0.63
aF0.34000000000000002
aF0.28000000000000003
aF0.19
aF0.48999999999999999
aF1
aF0.23999999999999999
aF0.14000000000000001
aF0.095000000000000001
aF0.025999999999999999
aF0.11
aF0.19
aF0.17000000000000001
aF0.021999999999999999
aF0.23999999999999999
aF0.090999999999999998
aF0.11
aF0.23999999999999999
aF0.089999999999999997
aF0.071999999999999995
aF0.099000000000000005
aF0.071999999999999995
aF0.17999999999999999
aF0.16
aF0.17999999999999999
aF1
aF0.14000000000000001
aF0.82999999999999996
aF0.40000000000000002
aF0.37
aF0.17999999999999999
aF1
aF0.59999999999999998
aF0.20000000000000001
aF0.55000000000000004
aF0.34000000000000002
aF0.25
aF0.35999999999999999
aF0.32000000000000001
aF0.38
aF0.12
aF0.39000000000000001
aF0.69999999999999996
aF0.69999999999999996
aF0.58999999999999997
aF0.48999999999999999
aF0.34999999999999998
aF0.12
aF0.094
aF0.029999999999999999
aF0.13
aF1
aF0.34000000000000002
aF0.26000000000000001
aF0.036999999999999998
aF0.14999999999999999
aF0.10000000000000001
aF0.064000000000000001
aF0.22
aF0.10000000000000001
aF0.016
aF0.20999999999999999
aF0.16
aF0.060999999999999999
aF0.079000000000000001
aF0.064000000000000001
aF0.091999999999999998
aF0.81999999999999995
aF0.37
aF0.26000000000000001
aF0.46000000000000002
aF1
aF0.32000000000000001
aF0.0051999999999999998
aF0.56000000000000005
aF0.13
aF0.54000000000000004
aF0.48999999999999999
aF0.066000000000000003
aF0.44
aF0.19
aF0.10000000000000001
aF0.47999999999999998
aF0.28000000000000003
aF0.38
aF0.17999999999999999
aF0.38
aF0.025999999999999999
aF0.031
aF0.0053
aF0.035999999999999997
aF0.11
aF0.01
aF0.0054999999999999997
aF1
aF0.0015
aF0.10000000000000001
aF0.028000000000000001
aF0.0083000000000000001
aF0.0054999999999999997
aF0.0035000000000000001
aF0.0015
aF0.0015
aF0.01
aF0.55000000000000004
aF0.012999999999999999
aF0.010999999999999999
as(S'HLA_B-0801'
I9
tp23
(lp24
F0
aF0.11
aF0.16
aF0.13
aF0.35999999999999999
aF0.56999999999999995
aF0.087999999999999995
aF0.17999999999999999
aF0.068000000000000005
aF0.039
aF0.22
aF0.79000000000000004
aF0.42999999999999999
aF0.012
aF0.048000000000000001
aF0.19
aF1
aF0.075999999999999998
aF0.047
aF0.20000000000000001
aF0.23999999999999999
aF0.40999999999999998
aF0.028000000000000001
aF0.014
aF0.037999999999999999
aF0.14000000000000001
aF0.17000000000000001
aF0.028000000000000001
aF0.23999999999999999
aF0.097000000000000003
aF0.71999999999999997
aF0.69999999999999996
aF0.16
aF1
aF0.13
aF0.29999999999999999
aF0.13
aF0.037999999999999999
aF0.17000000000000001
aF0.024
aF0.066000000000000003
aF0.12
aF0.02
aF0.014999999999999999
aF0.034000000000000002
aF0.19
aF0.085999999999999993
aF0.34999999999999998
aF0.14999999999999999
aF0.95999999999999996
aF0.20999999999999999
aF0.90000000000000002
aF0.11
aF0.071999999999999995
aF0.062
aF1
aF0.057000000000000002
aF0.053999999999999999
aF0.024
aF0.19
aF0.13
aF0.40000000000000002
aF0.40999999999999998
aF0.071999999999999995
aF0.23999999999999999
aF0.55000000000000004
aF0.063
aF0.26000000000000001
aF0.38
aF0.52000000000000002
aF0.60999999999999999
aF1
aF0.47999999999999998
aF0.34000000000000002
aF0.90000000000000002
aF0.85999999999999999
aF0.47999999999999998
aF0.52000000000000002
aF0.46999999999999997
aF0.68000000000000005
aF0.58999999999999997
aF0.029000000000000001
aF0.02
aF0.0054000000000000003
aF0.014
aF0.20999999999999999
aF0.029000000000000001
aF0.65000000000000002
aF0.080000000000000002
aF0.46999999999999997
aF0.062
aF0.078
aF0.036999999999999998
aF0.010999999999999999
aF0.036999999999999998
aF1
aF0.065000000000000002
aF0.010999999999999999
aF0.019
aF0.023
aF0.064000000000000001
aF0.010999999999999999
aF0.039
aF0.0088999999999999999
aF0.023
aF1
aF0.025000000000000001
aF0.12
aF0.048000000000000001
aF0.072999999999999995
aF0.060999999999999999
aF0.031
aF0.039
aF0.039
aF0.031
aF0.14999999999999999
aF0.051999999999999998
aF0.068000000000000005
aF0.076999999999999999
aF0.045999999999999999
aF0.0094000000000000004
aF0.44
aF0.44
aF0.071999999999999995
aF0.32000000000000001
aF0.40000000000000002
aF0.17000000000000001
aF1
aF0.029999999999999999
aF0.26000000000000001
aF0.59999999999999998
aF0.62
aF0.68999999999999995
aF0.35999999999999999
aF0.79000000000000004
aF0.5
aF0.34999999999999998
aF0.46000000000000002
aF0.55000000000000004
aF0.53000000000000003
aF0.27000000000000002
aF0.94999999999999996
aF0.22
aF0.17000000000000001
aF0.23999999999999999
aF0.32000000000000001
aF0.099000000000000005
aF0.14999999999999999
aF0.39000000000000001
aF0.14000000000000001
aF0.11
aF0.23999999999999999
aF0.085999999999999993
aF0.72999999999999998
aF0.14999999999999999
aF0.29999999999999999
aF1
aF0.23999999999999999
aF0.47999999999999998
aF0.11
aF0.13
aF0.31
aF0.047
aF0.0079000000000000008
aF0.16
aF0.68999999999999995
aF0.043999999999999997
aF0.010999999999999999
aF0.41999999999999998
aF0.012
aF1
aF0.55000000000000004
aF0.023
aF0.01
aF0.02
aF0.0080999999999999996
aF0.017999999999999999
aF0.016
aF0.45000000000000001
aF0.016
aF0.016
as(S'HLA_B-0702'
I9
tp25
(lp26
F0
aF0.78000000000000003
aF0.19
aF0.021000000000000001
aF0.069000000000000006
aF0.20999999999999999
aF0.14999999999999999
aF0.80000000000000004
aF0.41999999999999998
aF0.37
aF0.23000000000000001
aF0.56000000000000005
aF0.14999999999999999
aF0.029000000000000001
aF0.065000000000000002
aF1
aF0.34999999999999998
aF0.12
aF0.14000000000000001
aF0.25
aF0.25
aF0.085999999999999993
aF0.0028
aF0.0028999999999999998
aF0.0028
aF0.0028
aF0.0028
aF0.0028
aF0.033000000000000002
aF0.0028
aF0.016
aF0.0028
aF0.0028
aF1
aF0.010999999999999999
aF0.0077999999999999996
aF0.0043
aF0.014
aF0.085999999999999993
aF0.0051999999999999998
aF0.0050000000000000001
aF0.0097000000000000003
aF0.047
aF0.031
aF0.051999999999999998
aF0.067000000000000004
aF0.051999999999999998
aF0.39000000000000001
aF0.12
aF0.20000000000000001
aF0.070999999999999994
aF1
aF0.076999999999999999
aF0.014
aF0.19
aF0.63
aF0.092999999999999999
aF0.035000000000000003
aF0.040000000000000001
aF0.14000000000000001
aF0.060999999999999999
aF0.23000000000000001
aF0.17999999999999999
aF0.16
aF0.16
aF0.23000000000000001
aF0.14000000000000001
aF0.17999999999999999
aF0.17000000000000001
aF0.19
aF0.19
aF0.29999999999999999
aF0.17000000000000001
aF0.22
aF0.35999999999999999
aF0.20999999999999999
aF0.52000000000000002
aF0.47999999999999998
aF0.23000000000000001
aF1
aF0.33000000000000002
aF0.93999999999999995
aF0.38
aF0.069000000000000006
aF0.23000000000000001
aF0.28000000000000003
aF0.34000000000000002
aF0.39000000000000001
aF0.26000000000000001
aF0.11
aF0.59999999999999998
aF0.58999999999999997
aF0.28000000000000003
aF1
aF0.23999999999999999
aF0.73999999999999999
aF0.16
aF0.16
aF0.17000000000000001
aF0.17000000000000001
aF0.12
aF0.28999999999999998
aF0.17000000000000001
aF0.044999999999999998
aF0.085999999999999993
aF0.70999999999999996
aF0.79000000000000004
aF0.63
aF0.29999999999999999
aF0.22
aF0.34000000000000002
aF0.23000000000000001
aF0.17000000000000001
aF0.23000000000000001
aF0.22
aF1
aF0.35999999999999999
aF0.52000000000000002
aF0.34000000000000002
aF0.46999999999999997
aF0.26000000000000001
aF0.78000000000000003
aF0.56000000000000005
aF0.23999999999999999
aF0.31
aF0.25
aF0.60999999999999999
aF0.68999999999999995
aF0.27000000000000002
aF0.35999999999999999
aF0.28000000000000003
aF0.34000000000000002
aF0.26000000000000001
aF0.51000000000000001
aF0.79000000000000004
aF1
aF0.75
aF0.32000000000000001
aF0.23000000000000001
aF0.12
aF0.33000000000000002
aF0.39000000000000001
aF0.052999999999999999
aF0.050000000000000003
aF0.091999999999999998
aF0.071999999999999995
aF0.20999999999999999
aF0.084000000000000005
aF0.070999999999999994
aF0.017999999999999999
aF0.055
aF0.063
aF0.031
aF0.11
aF0.32000000000000001
aF0.29999999999999999
aF1
aF0.14000000000000001
aF0.14000000000000001
aF0.050000000000000003
aF0.084000000000000005
aF0.68999999999999995
aF0.024
aF0.010999999999999999
aF0.021000000000000001
aF0.84999999999999998
aF0.010999999999999999
aF0.02
aF0.25
aF0.010999999999999999
aF1
aF0.14000000000000001
aF0.010999999999999999
aF0.010999999999999999
aF0.010999999999999999
aF0.010999999999999999
aF0.010999999999999999
aF0.042000000000000003
aF0.31
aF0.010999999999999999
aF0.010999999999999999
as(S'HLA_A-3201'
I9
tp27
(lp28
F0
aF0.35999999999999999
aF0.11
aF0.031
aF0.12
aF0.089999999999999997
aF0.14000000000000001
aF0.38
aF0.46999999999999997
aF1
aF0.47999999999999998
aF0.76000000000000001
aF0.13
aF0.055
aF0.23000000000000001
aF0.96999999999999997
aF0.39000000000000001
aF0.11
aF0.28000000000000003
aF0.058999999999999997
aF0.12
aF0.11
aF0.028000000000000001
aF0.025000000000000001
aF0.031
aF0.012
aF0.025000000000000001
aF0.047
aF0.34999999999999998
aF0.0079000000000000008
aF0.28999999999999998
aF0.63
aF0.025000000000000001
aF0.021999999999999999
aF0.32000000000000001
aF0.0089999999999999993
aF0.20999999999999999
aF1
aF0.23000000000000001
aF0.034000000000000002
aF0.032000000000000001
aF0.23999999999999999
aF0.32000000000000001
aF0.085000000000000006
aF0.14000000000000001
aF0.97999999999999998
aF0.20000000000000001
aF0.23999999999999999
aF0.59999999999999998
aF0.091999999999999998
aF0.57999999999999996
aF0.93999999999999995
aF0.76000000000000001
aF0.13
aF0.45000000000000001
aF0.19
aF0.28999999999999998
aF0.16
aF0.31
aF0.94999999999999996
aF1
aF0.38
aF0.12
aF0.14000000000000001
aF0.35999999999999999
aF1
aF0.33000000000000002
aF0.32000000000000001
aF0.14999999999999999
aF0.39000000000000001
aF0.098000000000000004
aF0.57999999999999996
aF0.58999999999999997
aF0.095000000000000001
aF0.32000000000000001
aF0.22
aF0.26000000000000001
aF0.31
aF0.27000000000000002
aF0.28999999999999998
aF0.70999999999999996
aF0.14000000000000001
aF0.14999999999999999
aF0.042999999999999997
aF0.066000000000000003
aF1
aF0.31
aF0.14000000000000001
aF0.58999999999999997
aF0.16
aF0.56999999999999995
aF0.31
aF0.16
aF0.16
aF0.38
aF0.27000000000000002
aF0.20000000000000001
aF0.062
aF0.46999999999999997
aF0.65000000000000002
aF0.28000000000000003
aF0.82999999999999996
aF0.19
aF0.16
aF0.34999999999999998
aF0.90000000000000002
aF0.22
aF0.5
aF0.82999999999999996
aF0.29999999999999999
aF0.33000000000000002
aF0.44
aF0.72999999999999998
aF0.27000000000000002
aF0.14999999999999999
aF0.35999999999999999
aF0.80000000000000004
aF0.77000000000000002
aF1
aF0.26000000000000001
aF0.38
aF0.20000000000000001
aF0.11
aF0.025999999999999999
aF0.091999999999999998
aF0.44
aF0.050999999999999997
aF0.33000000000000002
aF0.094
aF0.029999999999999999
aF0.85999999999999999
aF0.10000000000000001
aF0.41999999999999998
aF0.087999999999999995
aF0.33000000000000002
aF0.10000000000000001
aF0.14000000000000001
aF0.14000000000000001
aF1
aF0.47999999999999998
aF0.55000000000000004
aF0.98999999999999999
aF0.11
aF0.10000000000000001
aF0.27000000000000002
aF0.23999999999999999
aF0.54000000000000004
aF0.48999999999999999
aF0.59999999999999998
aF0.23999999999999999
aF0.28999999999999998
aF0.52000000000000002
aF0.41999999999999998
aF0.87
aF0.34999999999999998
aF0.26000000000000001
aF1
aF0.85999999999999999
aF0.62
aF0.088999999999999996
aF0.23999999999999999
aF0.010999999999999999
aF0.014999999999999999
aF0.0028
aF0.012999999999999999
aF1
aF0.041000000000000002
aF0.029000000000000001
aF0.73999999999999999
aF0.014999999999999999
aF0.23000000000000001
aF0.073999999999999996
aF0.012999999999999999
aF0.0040000000000000001
aF0.012999999999999999
aF0.025000000000000001
aF0.0061000000000000004
aF0.0040000000000000001
aF0.051999999999999998
aF0.20999999999999999
aF0.23999999999999999
as(S'HLA_A-3001'
I9
tp29
(lp30
F0
aF0.17999999999999999
aF0.097000000000000003
aF0.0068999999999999999
aF0.017999999999999999
aF0.035000000000000003
aF0.11
aF0.48999999999999999
aF0.11
aF0.48999999999999999
aF0.081000000000000003
aF0.37
aF0.065000000000000002
aF0.0058999999999999999
aF0.063
aF1
aF0.32000000000000001
aF0.050000000000000003
aF0.073999999999999996
aF0.02
aF0.064000000000000001
aF0.89000000000000001
aF0.14999999999999999
aF0.012
aF0.025000000000000001
aF0.29999999999999999
aF0.22
aF0.082000000000000003
aF0.17999999999999999
aF0.025999999999999999
aF0.16
aF0.69999999999999996
aF0.10000000000000001
aF0.024
aF0.33000000000000002
aF0.048000000000000001
aF0.38
aF0.77000000000000002
aF1
aF0.26000000000000001
aF0.46000000000000002
aF0.0077000000000000002
aF0.0047999999999999996
aF0.0018
aF0.0030999999999999999
aF0.041000000000000002
aF0.0022000000000000001
aF0.088999999999999996
aF0.02
aF0.20000000000000001
aF0.033000000000000002
aF0.028000000000000001
aF0.017000000000000001
aF0.0035999999999999999
aF0.014
aF1
aF0.040000000000000001
aF0.0040000000000000001
aF0.0058999999999999999
aF0.0080000000000000002
aF0.016
aF0.47999999999999998
aF0.31
aF0.22
aF0.34000000000000002
aF1
aF0.5
aF0.45000000000000001
aF0.34000000000000002
aF0.32000000000000001
aF0.52000000000000002
aF0.38
aF0.31
aF0.58999999999999997
aF0.65000000000000002
aF0.52000000000000002
aF0.76000000000000001
aF0.44
aF0.22
aF0.45000000000000001
aF0.41999999999999998
aF0.47999999999999998
aF0.12
aF0.041000000000000002
aF0.099000000000000005
aF0.38
aF0.28999999999999998
aF0.14000000000000001
aF0.20000000000000001
aF0.16
aF0.14000000000000001
aF0.33000000000000002
aF0.12
aF0.53000000000000003
aF0.20000000000000001
aF0.80000000000000004
aF1
aF0.17999999999999999
aF0.34999999999999998
aF0.16
aF0.20999999999999999
aF0.34000000000000002
aF0.13
aF0.016
aF0.058999999999999997
aF1
aF0.17999999999999999
aF0.16
aF0.27000000000000002
aF0.10000000000000001
aF0.28000000000000003
aF0.17999999999999999
aF0.13
aF0.19
aF0.20999999999999999
aF0.20999999999999999
aF0.44
aF0.27000000000000002
aF0.22
aF0.14000000000000001
aF0.20999999999999999
aF0.12
aF0.20999999999999999
aF0.014
aF0.050000000000000003
aF0.17999999999999999
aF0.043999999999999997
aF0.082000000000000003
aF0.16
aF0.062
aF0.20999999999999999
aF0.32000000000000001
aF0.10000000000000001
aF1
aF0.28999999999999998
aF0.085000000000000006
aF0.042000000000000003
aF0.11
aF0.19
aF0.16
aF0.20000000000000001
aF0.53000000000000003
aF0.11
aF0.051999999999999998
aF0.12
aF0.76000000000000001
aF0.17999999999999999
aF0.44
aF0.20999999999999999
aF0.12
aF0.23000000000000001
aF0.14000000000000001
aF0.54000000000000004
aF0.80000000000000004
aF0.27000000000000002
aF0.34999999999999998
aF0.23000000000000001
aF0.31
aF0.19
aF0.16
aF1
aF0.58999999999999997
aF0.083000000000000004
aF0.0076
aF0.014
aF0.014
aF0.028000000000000001
aF0.0058999999999999999
aF0.11
aF1
aF0.14999999999999999
aF0.066000000000000003
aF0.0074999999999999997
aF0.0038
aF0.010999999999999999
aF0.028000000000000001
aF0.040000000000000001
aF0.014
aF0.14999999999999999
aF0.0085000000000000006
aF0.11
as(S'HLA_B-5301'
I9
tp31
(lp32
F0
aF0.0057000000000000002
aF0.060999999999999999
aF0.028000000000000001
aF0.021000000000000001
aF0.14000000000000001
aF0.0086
aF1
aF0.14999999999999999
aF0.0057000000000000002
aF0.14000000000000001
aF0.26000000000000001
aF0.027
aF0.0038
aF0.021000000000000001
aF0.02
aF0.055
aF0.027
aF0.017999999999999999
aF0.17000000000000001
aF0.35999999999999999
aF0.44
aF0.019
aF0.0088000000000000005
aF0.021000000000000001
aF0.017999999999999999
aF0.021999999999999999
aF0.0035999999999999999
aF0.11
aF0.0053
aF0.035000000000000003
aF0.040000000000000001
aF0.0083000000000000001
aF1
aF0.047
aF0.0044999999999999997
aF0.031
aF0.021999999999999999
aF0.10000000000000001
aF0.0054000000000000003
aF0.0053
aF0.0064999999999999997
aF0.0064999999999999997
aF0.096000000000000002
aF0.031
aF0.19
aF0.045999999999999999
aF0.058999999999999997
aF0.26000000000000001
aF0.019
aF0.58999999999999997
aF1
aF0.22
aF0.01
aF0.13
aF0.029000000000000001
aF0.14999999999999999
aF0.044999999999999998
aF0.11
aF0.075999999999999998
aF0.078
aF0.35999999999999999
aF0.14000000000000001
aF0.26000000000000001
aF0.23999999999999999
aF0.20999999999999999
aF0.17999999999999999
aF0.088999999999999996
aF0.17999999999999999
aF0.12
aF0.17000000000000001
aF0.46000000000000002
aF0.27000000000000002
aF0.023
aF0.26000000000000001
aF0.11
aF0.44
aF0.25
aF0.69999999999999996
aF1
aF0.28999999999999998
aF0.13
aF0.13
aF0.13
aF0.14999999999999999
aF1
aF0.32000000000000001
aF0.090999999999999998
aF0.29999999999999999
aF0.042000000000000003
aF0.17999999999999999
aF0.38
aF0.17000000000000001
aF0.14000000000000001
aF0.12
aF0.11
aF0.16
aF0.11
aF0.17999999999999999
aF0.073999999999999996
aF0.086999999999999994
aF0.65000000000000002
aF0.13
aF0.14999999999999999
aF0.20999999999999999
aF0.85999999999999999
aF0.22
aF0.29999999999999999
aF0.40999999999999998
aF0.14999999999999999
aF0.17999999999999999
aF0.23000000000000001
aF0.13
aF0.14999999999999999
aF0.13
aF0.095000000000000001
aF0.17000000000000001
aF0.29999999999999999
aF0.65000000000000002
aF0.35999999999999999
aF1
aF0.31
aF0.17000000000000001
aF0.049000000000000002
aF0.28999999999999998
aF0.10000000000000001
aF0.058000000000000003
aF0.070000000000000007
aF0.10000000000000001
aF0.021999999999999999
aF0.32000000000000001
aF0.14999999999999999
aF0.28999999999999998
aF0.5
aF1
aF0.25
aF0.086999999999999994
aF0.081000000000000003
aF0.32000000000000001
aF0.31
aF0.12
aF0.80000000000000004
aF0.078
aF0.082000000000000003
aF0.10000000000000001
aF0.46000000000000002
aF0.094
aF0.73999999999999999
aF1
aF0.78000000000000003
aF0.41999999999999998
aF0.33000000000000002
aF0.20999999999999999
aF0.14999999999999999
aF0.16
aF0.46000000000000002
aF0.11
aF0.22
aF0.51000000000000001
aF0.099000000000000005
aF0.23000000000000001
aF0.02
aF0.46000000000000002
aF0.0076
aF0.032000000000000001
aF1
aF0.0086999999999999994
aF0.0091000000000000004
aF0.14000000000000001
aF0.0018
aF0.012999999999999999
aF0.052999999999999999
aF0.0018
aF0.0018
aF0.0018
aF0.01
aF0.0023
aF0.0033999999999999998
aF0.0064999999999999997
aF0.13
aF0.062
as(S'HLA_B-1501'
I9
tp33
(lp34
F0
aF0.31
aF0.19
aF0.042000000000000003
aF0.16
aF0.58999999999999997
aF0.42999999999999999
aF0.58999999999999997
aF1
aF0.39000000000000001
aF0.60999999999999999
aF0.89000000000000001
aF0.22
aF0.058999999999999997
aF0.25
aF0.67000000000000004
aF0.41999999999999998
aF0.13
aF0.14000000000000001
aF0.44
aF0.33000000000000002
aF0.56999999999999995
aF0.027
aF0.0094000000000000004
aF0.20000000000000001
aF0.099000000000000005
aF0.095000000000000001
aF0.014999999999999999
aF0.41999999999999998
aF0.0091000000000000004
aF0.52000000000000002
aF0.95999999999999996
aF0.051999999999999998
aF0.014999999999999999
aF1
aF0.024
aF0.58999999999999997
aF0.28999999999999998
aF0.39000000000000001
aF0.027
aF0.028000000000000001
aF0.23000000000000001
aF0.34999999999999998
aF0.039
aF0.040000000000000001
aF0.82999999999999996
aF0.14000000000000001
aF0.68000000000000005
aF1
aF0.53000000000000003
aF0.17999999999999999
aF0.77000000000000002
aF0.46000000000000002
aF0.32000000000000001
aF0.29999999999999999
aF0.68999999999999995
aF0.40999999999999998
aF0.12
aF0.14000000000000001
aF0.16
aF0.59999999999999998
aF0.40000000000000002
aF0.39000000000000001
aF0.29999999999999999
aF0.27000000000000002
aF0.41999999999999998
aF0.23000000000000001
aF0.19
aF0.27000000000000002
aF0.42999999999999999
aF0.56000000000000005
aF0.56000000000000005
aF0.46000000000000002
aF0.22
aF0.95999999999999996
aF0.28000000000000003
aF1
aF0.39000000000000001
aF0.52000000000000002
aF0.39000000000000001
aF0.40999999999999998
aF0.64000000000000001
aF0.87
aF0.17000000000000001
aF0.41999999999999998
aF0.52000000000000002
aF0.77000000000000002
aF0.66000000000000003
aF0.32000000000000001
aF0.31
aF0.68999999999999995
aF0.40999999999999998
aF0.56000000000000005
aF0.89000000000000001
aF1
aF0.64000000000000001
aF0.70999999999999996
aF0.62
aF0.56000000000000005
aF0.48999999999999999
aF0.94999999999999996
aF0.29999999999999999
aF0.40000000000000002
aF0.17999999999999999
aF0.29999999999999999
aF1
aF0.34999999999999998
aF0.28000000000000003
aF0.53000000000000003
aF0.28000000000000003
aF0.12
aF0.44
aF0.26000000000000001
aF0.11
aF0.20999999999999999
aF0.13
aF0.34999999999999998
aF0.55000000000000004
aF0.37
aF0.35999999999999999
aF0.20000000000000001
aF0.68999999999999995
aF0.78000000000000003
aF0.10000000000000001
aF0.48999999999999999
aF0.34000000000000002
aF0.52000000000000002
aF0.33000000000000002
aF0.40000000000000002
aF0.14999999999999999
aF1
aF0.54000000000000004
aF0.66000000000000003
aF0.62
aF0.51000000000000001
aF0.22
aF0.65000000000000002
aF0.48999999999999999
aF0.56000000000000005
aF0.31
aF0.28000000000000003
aF0.35999999999999999
aF0.17999999999999999
aF0.049000000000000002
aF0.23000000000000001
aF0.32000000000000001
aF0.14999999999999999
aF1
aF0.17999999999999999
aF0.23999999999999999
aF0.14999999999999999
aF0.060999999999999999
aF0.12
aF0.34999999999999998
aF0.17000000000000001
aF0.14999999999999999
aF0.34000000000000002
aF0.40000000000000002
aF0.38
aF0.035000000000000003
aF0.20000000000000001
aF0.053999999999999999
aF0.023
aF0.0025000000000000001
aF0.0060000000000000001
aF1
aF0.074999999999999997
aF0.017999999999999999
aF0.042000000000000003
aF0.001
aF0.049000000000000002
aF0.11
aF0.0091999999999999998
aF0.0044999999999999997
aF0.0040000000000000001
aF0.0018
aF0.0038999999999999998
aF0.0038999999999999998
aF0.016
aF0.0068999999999999999
aF0.44
as(S'HLA_B-1503'
I9
tp35
(lp36
F0
aF0.46999999999999997
aF0.20000000000000001
aF0.016
aF0.089999999999999997
aF1
aF0.063
aF0.20000000000000001
aF0.51000000000000001
aF0.46000000000000002
aF0.52000000000000002
aF0.40000000000000002
aF0.14000000000000001
aF0.017999999999999999
aF0.073999999999999996
aF0.56000000000000005
aF0.5
aF0.14000000000000001
aF0.22
aF0.27000000000000002
aF0.34000000000000002
aF0.13
aF0.0028
aF0.0054000000000000003
aF0.11
aF0.0061999999999999998
aF0.042000000000000003
aF0.16
aF0.025999999999999999
aF0.28999999999999998
aF0.17999999999999999
aF0.56999999999999995
aF0.032000000000000001
aF0.031
aF1
aF0.058999999999999997
aF0.13
aF0.025999999999999999
aF0.017000000000000001
aF0.0038
aF0.017000000000000001
aF0.28999999999999998
aF0.048000000000000001
aF0.032000000000000001
aF0.043999999999999997
aF0.62
aF0.063
aF0.19
aF0.17000000000000001
aF0.095000000000000001
aF0.042999999999999997
aF0.33000000000000002
aF0.23999999999999999
aF0.058000000000000003
aF0.062
aF0.25
aF0.40999999999999998
aF0.23000000000000001
aF1
aF0.34999999999999998
aF0.44
aF0.40999999999999998
aF0.34000000000000002
aF0.13
aF0.25
aF0.40999999999999998
aF0.19
aF0.28999999999999998
aF0.26000000000000001
aF0.29999999999999999
aF0.46000000000000002
aF1
aF0.76000000000000001
aF0.67000000000000004
aF0.82999999999999996
aF0.5
aF0.78000000000000003
aF0.40999999999999998
aF0.64000000000000001
aF0.63
aF0.55000000000000004
aF1
aF0.62
aF0.23000000000000001
aF0.40999999999999998
aF0.78000000000000003
aF0.65000000000000002
aF0.32000000000000001
aF0.12
aF0.13
aF0.089999999999999997
aF0.064000000000000001
aF0.26000000000000001
aF0.46000000000000002
aF0.20000000000000001
aF0.28000000000000003
aF0.46999999999999997
aF0.42999999999999999
aF0.23999999999999999
aF0.44
aF0.34000000000000002
aF0.45000000000000001
aF0.096000000000000002
aF0.19
aF0.40000000000000002
aF1
aF0.68000000000000005
aF0.25
aF0.40999999999999998
aF0.26000000000000001
aF0.37
aF0.42999999999999999
aF0.0067000000000000002
aF0.46999999999999997
aF0.53000000000000003
aF0.51000000000000001
aF0.51000000000000001
aF0.79000000000000004
aF0.78000000000000003
aF0.37
aF0.40000000000000002
aF0.0014
aF0.094
aF0.050999999999999997
aF0.042999999999999997
aF0.076999999999999999
aF0.12
aF0.17999999999999999
aF0.28999999999999998
aF0.090999999999999998
aF0.23999999999999999
aF0.17999999999999999
aF1
aF0.16
aF0.94999999999999996
aF0.20999999999999999
aF0.32000000000000001
aF0.16
aF0.19
aF0.14999999999999999
aF0.17000000000000001
aF0.27000000000000002
aF0.11
aF0.14000000000000001
aF0.11
aF0.20999999999999999
aF0.17999999999999999
aF0.83999999999999997
aF0.33000000000000002
aF0.085000000000000006
aF0.13
aF0.14000000000000001
aF0.13
aF0.29999999999999999
aF0.19
aF0.11
aF1
aF0.23000000000000001
aF0.34000000000000002
aF0.13
aF0.17000000000000001
aF0.049000000000000002
aF0.017999999999999999
aF0.002
aF0.0077999999999999996
aF1
aF0.021000000000000001
aF0.02
aF0.067000000000000004
aF0.0012999999999999999
aF0.086999999999999994
aF0.17000000000000001
aF0.0055999999999999999
aF0.0053
aF0.0030000000000000001
aF0.0023999999999999998
aF0.0038999999999999998
aF0.0092999999999999992
aF0.067000000000000004
aF0.021000000000000001
aF0.14999999999999999
as(S'HLA_B-2705'
I9
tp37
(lp38
F0
aF0.34999999999999998
aF0.11
aF0.021999999999999999
aF0.088999999999999996
aF0.59999999999999998
aF0.59999999999999998
aF0.48999999999999999
aF0.22
aF0.26000000000000001
aF0.26000000000000001
aF0.44
aF0.095000000000000001
aF0.021999999999999999
aF0.067000000000000004
aF1
aF0.19
aF0.12
aF0.16
aF0.40999999999999998
aF0.84999999999999998
aF0.0054000000000000003
aF0.0016000000000000001
aF0.0016000000000000001
aF0.0016000000000000001
aF0.0016000000000000001
aF0.0016000000000000001
aF0.0064999999999999997
aF0.0022000000000000001
aF0.0076
aF0.0053
aF0.01
aF0.0016000000000000001
aF0.0016000000000000001
aF0.016
aF1
aF0.012
aF0.0033
aF0.0016000000000000001
aF0.0022000000000000001
aF0.0025999999999999999
aF0.20999999999999999
aF0.14000000000000001
aF0.02
aF0.070999999999999994
aF1
aF0.17000000000000001
aF0.26000000000000001
aF0.22
aF0.20999999999999999
aF0.55000000000000004
aF0.87
aF0.23000000000000001
aF0.027
aF0.12
aF0.16
aF0.27000000000000002
aF0.26000000000000001
aF0.19
aF0.68000000000000005
aF0.40000000000000002
aF0.28000000000000003
aF0.25
aF0.26000000000000001
aF0.22
aF0.68999999999999995
aF0.33000000000000002
aF0.56000000000000005
aF0.11
aF0.29999999999999999
aF0.39000000000000001
aF0.37
aF0.28999999999999998
aF0.20000000000000001
aF0.34000000000000002
aF0.41999999999999998
aF0.089999999999999997
aF0.38
aF0.29999999999999999
aF1
aF0.40000000000000002
aF0.38
aF1
aF0.28000000000000003
aF0.27000000000000002
aF0.39000000000000001
aF0.20999999999999999
aF0.22
aF0.20999999999999999
aF0.068000000000000005
aF0.20999999999999999
aF0.32000000000000001
aF0.16
aF0.14999999999999999
aF0.14999999999999999
aF0.035999999999999997
aF0.090999999999999998
aF0.035999999999999997
aF0.20000000000000001
aF0.28999999999999998
aF0.19
aF0.076999999999999999
aF0.23999999999999999
aF0.099000000000000005
aF0.13
aF0.20000000000000001
aF0.094
aF0.57999999999999996
aF1
aF0.14999999999999999
aF0.34000000000000002
aF0.28999999999999998
aF0.22
aF0.23999999999999999
aF0.23999999999999999
aF0.14000000000000001
aF0.23000000000000001
aF0.23000000000000001
aF0.14999999999999999
aF0.28000000000000003
aF0.063
aF0.55000000000000004
aF0.96999999999999997
aF0.14999999999999999
aF0.85999999999999999
aF0.73999999999999999
aF0.41999999999999998
aF0.93999999999999995
aF0.11
aF0.11
aF0.72999999999999998
aF0.11
aF0.13
aF1
aF0.84999999999999998
aF0.14000000000000001
aF0.54000000000000004
aF0.81000000000000005
aF0.59999999999999998
aF0.11
aF0.51000000000000001
aF0.55000000000000004
aF0.37
aF0.083000000000000004
aF0.29999999999999999
aF0.5
aF0.40999999999999998
aF0.55000000000000004
aF0.42999999999999999
aF0.40999999999999998
aF0.57999999999999996
aF0.62
aF0.083000000000000004
aF0.68000000000000005
aF0.45000000000000001
aF1
aF0.5
aF0.73999999999999999
aF0.51000000000000001
aF0.14999999999999999
aF0.46999999999999997
aF0.17999999999999999
aF0.080000000000000002
aF0.10000000000000001
aF0.20000000000000001
aF1
aF0.11
aF0.28999999999999998
aF0.44
aF0.5
aF0.46999999999999997
aF0.32000000000000001
aF0.042000000000000003
aF0.10000000000000001
aF0.14999999999999999
aF0.88
aF0.075999999999999998
aF0.082000000000000003
aF0.39000000000000001
aF0.042000000000000003
aF0.22
as(S'HLA_B-5801'
I9
tp39
(lp40
F0
aF0.33000000000000002
aF0.17999999999999999
aF0.012999999999999999
aF0.032000000000000001
aF0.34000000000000002
aF0.069000000000000006
aF0.42999999999999999
aF0.34999999999999998
aF1
aF0.53000000000000003
aF0.69999999999999996
aF0.056000000000000001
aF0.029999999999999999
aF0.17000000000000001
aF0.79000000000000004
aF0.16
aF0.12
aF0.73999999999999999
aF0.28999999999999998
aF0.20000000000000001
aF0.47999999999999998
aF0.012999999999999999
aF0.0033
aF0.0066
aF0.097000000000000003
aF0.14000000000000001
aF0.060999999999999999
aF0.045999999999999999
aF0.014
aF0.042999999999999997
aF0.0033
aF0.012
aF0.014
aF0.024
aF0.017000000000000001
aF1
aF0.70999999999999996
aF0.14000000000000001
aF0.0033
aF0.029000000000000001
aF0.32000000000000001
aF0.11
aF0.11
aF0.095000000000000001
aF0.52000000000000002
aF0.12
aF0.19
aF0.77000000000000002
aF0.02
aF0.60999999999999999
aF0.47999999999999998
aF0.88
aF0.042000000000000003
aF0.14999999999999999
aF0.058000000000000003
aF0.33000000000000002
aF0.39000000000000001
aF1
aF0.28999999999999998
aF0.34000000000000002
aF0.46000000000000002
aF0.23000000000000001
aF0.17000000000000001
aF0.20999999999999999
aF0.31
aF0.20999999999999999
aF0.40000000000000002
aF0.23000000000000001
aF0.44
aF0.41999999999999998
aF0.54000000000000004
aF0.46000000000000002
aF1
aF0.46000000000000002
aF0.67000000000000004
aF0.73999999999999999
aF0.27000000000000002
aF0.33000000000000002
aF0.33000000000000002
aF0.27000000000000002
aF0.28000000000000003
aF0.14000000000000001
aF0.11
aF0.20999999999999999
aF0.42999999999999999
aF0.38
aF0.20999999999999999
aF0.34000000000000002
aF0.11
aF0.25
aF0.091999999999999998
aF0.13
aF0.19
aF0.19
aF0.14999999999999999
aF0.31
aF0.33000000000000002
aF1
aF0.29999999999999999
aF0.33000000000000002
aF0.28000000000000003
aF0.17000000000000001
aF0.35999999999999999
aF0.80000000000000004
aF0.51000000000000001
aF0.31
aF0.40000000000000002
aF0.67000000000000004
aF0.13
aF0.48999999999999999
aF0.40999999999999998
aF0.027
aF0.20000000000000001
aF0.56999999999999995
aF0.25
aF0.45000000000000001
aF0.71999999999999997
aF0.71999999999999997
aF0.20999999999999999
aF1
aF0.0044999999999999997
aF0.082000000000000003
aF0.066000000000000003
aF0.14999999999999999
aF0.017999999999999999
aF0.031
aF0.17999999999999999
aF0.65000000000000002
aF0.036999999999999998
aF1
aF0.29999999999999999
aF0.37
aF0.22
aF0.23000000000000001
aF0.074999999999999997
aF0.14000000000000001
aF0.28000000000000003
aF0.53000000000000003
aF0.79000000000000004
aF0.93999999999999995
aF0.14000000000000001
aF0.17999999999999999
aF0.063
aF0.17999999999999999
aF1
aF0.20999999999999999
aF0.17999999999999999
aF0.39000000000000001
aF0.14000000000000001
aF0.42999999999999999
aF0.17999999999999999
aF0.25
aF0.17999999999999999
aF0.39000000000000001
aF0.13
aF0.31
aF0.28999999999999998
aF0.20000000000000001
aF0.83999999999999997
aF0.41999999999999998
aF0.0086
aF0.16
aF0.0085000000000000006
aF0.048000000000000001
aF0.91000000000000003
aF0.067000000000000004
aF0.0089999999999999993
aF0.52000000000000002
aF0.0028
aF0.096000000000000002
aF0.16
aF0.017999999999999999
aF0.0032000000000000002
aF0.021000000000000001
aF0.0044000000000000003
aF0.0080000000000000002
aF0.0032000000000000002
aF0.025999999999999999
aF1
aF0.23999999999999999
as.