(dp1
(S'H-2_Db'
I9
tp2
(lp3
F0
aF0.035000000000000003
aF0.32000000000000001
aF1.056
aF1.577
aF-0.17000000000000001
aF0.36699999999999999
aF0.39900000000000002
aF0.22600000000000001
aF0.28899999999999998
aF0.26400000000000001
aF0.24299999999999999
aF0.38300000000000001
aF1.0189999999999999
aF0.33100000000000002
aF-0.027
aF-0.047
aF0.441
aF-0.073999999999999996
aF0.128
aF-0.36299999999999999
aF-0.46999999999999997
aF0.496
aF1.847
aF1.9450000000000001
aF0.79200000000000004
aF0.052999999999999999
aF0.26000000000000001
aF0.85299999999999998
aF0.58699999999999997
aF0.050999999999999997
aF-0.45300000000000001
aF0.081000000000000003
aF0.56200000000000006
aF-0.27100000000000002
aF1.1699999999999999
aF-0.22500000000000001
aF0.51500000000000001
aF0.11799999999999999
aF1
aF1.018
aF0.113
aF0.0050000000000000001
aF1.8220000000000001
aF0.28699999999999998
aF-0.11700000000000001
aF-0.11899999999999999
aF-0.40300000000000002
aF-0.44
aF0.115
aF-0.68300000000000005
aF-0.50600000000000001
aF-0.249
aF-0.64000000000000001
aF0.13800000000000001
aF0.51600000000000001
aF0.19600000000000001
aF0.191
aF-0.23599999999999999
aF-0.081000000000000003
aF0.19
aF-0.122
aF0.012999999999999999
aF0.20399999999999999
aF-0.001
aF0.056000000000000001
aF0.224
aF-0.043999999999999997
aF-0.098000000000000004
aF-0.012999999999999999
aF-0.106
aF-0.067000000000000004
aF0.16900000000000001
aF0.28499999999999998
aF-0.090999999999999998
aF-0.21299999999999999
aF0.058000000000000003
aF-0.052999999999999999
aF-0.16
aF0.21199999999999999
aF0.0040000000000000001
aF0.067000000000000004
aF0.152
aF0.34499999999999997
aF1.1120000000000001
aF-0.070000000000000007
aF-0.0089999999999999993
aF-0.156
aF0.32100000000000001
aF0.19600000000000001
aF0.17199999999999999
aF0.22900000000000001
aF-0.95199999999999996
aF-0.017999999999999999
aF0.18099999999999999
aF0.35899999999999999
aF-0.31900000000000001
aF0.23000000000000001
aF0.503
aF0.17599999999999999
aF0.51300000000000001
aF0
aF0.067000000000000004
aF0.44500000000000001
aF0.42999999999999999
aF-0.13600000000000001
aF0.104
aF-0.12
aF-0.0089999999999999993
aF-0.0089999999999999993
aF-0.025999999999999999
aF0.037999999999999999
aF0.34799999999999998
aF0.028000000000000001
aF-0.126
aF-0.079000000000000001
aF0.032000000000000001
aF-0.063
aF0.16400000000000001
aF0.0030000000000000001
aF0.246
aF-0.039
aF0.048000000000000001
aF-0.161
aF0.058000000000000003
aF-0.129
aF0.218
aF-0.124
aF-0.084000000000000005
aF0.45400000000000001
aF-0.095000000000000001
aF-0.128
aF0.255
aF0.014
aF0.049000000000000002
aF0.33800000000000002
aF0.031
aF-0.0030000000000000001
aF0.010999999999999999
aF-0.029999999999999999
aF0.27400000000000002
aF-0.088999999999999996
aF0.189
aF0.28499999999999998
aF-0.088999999999999996
aF-0.033000000000000002
aF0.75900000000000001
aF0.14399999999999999
aF0.19600000000000001
aF0.745
aF0.112
aF0.62
aF0.434
aF-0.46100000000000002
aF0.30099999999999999
aF0.84999999999999998
aF0.10100000000000001
aF-0.097000000000000003
aF-0.123
aF0.081000000000000003
aF-0.14699999999999999
aF-0.091999999999999998
aF1.4379999999999999
aF3.3090000000000002
aF3.0830000000000002
aF0.080000000000000002
aF1.5900000000000001
aF2.3380000000000001
aF-0.23799999999999999
aF3.1070000000000002
aF-0.375
aF-0.35299999999999998
aF2.4969999999999999
aF0.90600000000000003
aF2.9660000000000002
aF2.0179999999999998
aF2.1179999999999999
aF0.57199999999999995
aF-0.090999999999999998
aF2.2280000000000002
aF1.6679999999999999
as(S'H-2_Kb'
I9
tp4
(lp5
F0
aF0.19
aF0.42499999999999999
aF1.1240000000000001
aF0.88600000000000001
aF0.34100000000000003
aF0.73099999999999998
aF0.81399999999999995
aF-0.151
aF0.38800000000000001
aF0.33300000000000002
aF0.35399999999999998
aF0.69899999999999995
aF0.90900000000000003
aF0.30099999999999999
aF0.28799999999999998
aF0.085000000000000006
aF0.246
aF-0.315
aF0.53300000000000003
aF0.32500000000000001
aF0.021999999999999999
aF0.371
aF1.1759999999999999
aF1.1930000000000001
aF0.189
aF0.125
aF0.219
aF-0.017999999999999999
aF1.0129999999999999
aF0.59699999999999998
aF0.017000000000000001
aF-0.11799999999999999
aF0.81299999999999994
aF0.28399999999999997
aF0.53000000000000003
aF0.025000000000000001
aF0.215
aF0.068000000000000005
aF0.156
aF0.53800000000000003
aF0.60299999999999998
aF0.35299999999999998
aF0.95199999999999996
aF0.94999999999999996
aF-0.16600000000000001
aF0.65000000000000002
aF0.45300000000000001
aF0.085999999999999993
aF0.89600000000000002
aF0.122
aF0.042000000000000003
aF0.442
aF-0.115
aF0.41599999999999998
aF0.44900000000000001
aF0.60499999999999998
aF0.48199999999999998
aF0.18099999999999999
aF-0.049000000000000002
aF-0.28199999999999997
aF-0.002
aF0.16300000000000001
aF0.222
aF0.14099999999999999
aF0.080000000000000002
aF0.29799999999999999
aF0.042999999999999997
aF0.012
aF0.16800000000000001
aF0.056000000000000001
aF0.057000000000000002
aF0.20799999999999999
aF0.28899999999999998
aF0.17999999999999999
aF0.057000000000000002
aF0.23599999999999999
aF0.29499999999999998
aF0.185
aF0.27600000000000002
aF0.30499999999999999
aF0.39300000000000002
aF0.314
aF0.73799999999999999
aF0.69899999999999995
aF-0.27900000000000003
aF0.57799999999999996
aF-0.058999999999999997
aF0.34699999999999998
aF0.13300000000000001
aF0.32200000000000001
aF0.23799999999999999
aF0.52500000000000002
aF0.252
aF0.50900000000000001
aF-0.153
aF0.60399999999999998
aF0.64300000000000002
aF0.32900000000000001
aF0.125
aF0.02
aF0.20599999999999999
aF0.29799999999999999
aF0.58399999999999996
aF0.50800000000000001
aF0.033000000000000002
aF0.41399999999999998
aF0.155
aF0.20999999999999999
aF0.30399999999999999
aF0.157
aF0.28499999999999998
aF0.435
aF0.317
aF0.38400000000000001
aF0.22
aF0.38600000000000001
aF0.32600000000000001
aF0.218
aF0.224
aF0.28899999999999998
aF-0.0089999999999999993
aF0.30399999999999999
aF0.92900000000000005
aF0.55200000000000005
aF0.34799999999999998
aF0.41199999999999998
aF0.152
aF0.33600000000000002
aF0.42799999999999999
aF0.32800000000000001
aF0.14799999999999999
aF0.098000000000000004
aF-0.051999999999999998
aF0.157
aF0.151
aF0.20200000000000001
aF0.16900000000000001
aF0.28499999999999998
aF0.68000000000000005
aF0.46500000000000002
aF0.155
aF0.219
aF0.76200000000000001
aF0.56299999999999994
aF0.46100000000000002
aF0.052999999999999999
aF0.088999999999999996
aF0.26800000000000002
aF0.28299999999999997
aF-0.153
aF-0.036999999999999998
aF0.014
aF-0.074999999999999997
aF0.20100000000000001
aF-0.090999999999999998
aF0.255
aF0.23200000000000001
aF0.34599999999999997
aF0.56999999999999995
aF0.26700000000000002
aF0.49199999999999999
aF0.68500000000000005
aF1.0649999999999999
aF1.1120000000000001
aF-0.085999999999999993
aF0.78200000000000003
aF1.107
aF-0.16200000000000001
aF1.254
aF-0.29099999999999998
aF-0.28499999999999998
aF1.248
aF1.1120000000000001
aF1.0660000000000001
aF0.55400000000000005
aF1.0700000000000001
aF0.85099999999999998
aF-0.073999999999999996
aF1.0609999999999999
aF1.141
as(S'H-2_Kb'
I8
tp6
(lp7
F0
aF-0.029000000000000001
aF0.29299999999999998
aF1.2889999999999999
aF0.35299999999999998
aF0.18099999999999999
aF0.33400000000000002
aF0.51500000000000001
aF-0.35899999999999999
aF0.13400000000000001
aF0.033000000000000002
aF0.121
aF0.55300000000000005
aF0.89600000000000002
aF0.33300000000000002
aF0.36199999999999999
aF-0.115
aF0.24299999999999999
aF-0.13300000000000001
aF0.42599999999999999
aF0.439
aF-0.012999999999999999
aF0.23100000000000001
aF1.236
aF1.177
aF0.45400000000000001
aF0.46300000000000002
aF0.28199999999999997
aF0.014
aF0.72399999999999998
aF0.22500000000000001
aF0.064000000000000001
aF-0.34300000000000003
aF0.36899999999999999
aF0.20300000000000001
aF0.153
aF-0.34200000000000003
aF-0.050000000000000003
aF-0.28599999999999998
aF-0.098000000000000004
aF0.16700000000000001
aF0.623
aF0.33600000000000002
aF1.173
aF1.7869999999999999
aF-0.23799999999999999
aF0.66200000000000003
aF0.25600000000000001
aF-0.029000000000000001
aF0.66200000000000003
aF-0.051999999999999998
aF0.032000000000000001
aF0.36499999999999999
aF-0.032000000000000001
aF0.307
aF0.19700000000000001
aF0.46600000000000003
aF0.11600000000000001
aF0.224
aF0.13500000000000001
aF-0.26900000000000002
aF0.22500000000000001
aF-0.002
aF0.097000000000000003
aF0.017999999999999999
aF0.076999999999999999
aF0.35399999999999998
aF-0.089999999999999997
aF-0.20399999999999999
aF-0.14699999999999999
aF-0.047
aF0.035999999999999997
aF0.019
aF-0.224
aF-0.219
aF-0.18099999999999999
aF0.035000000000000003
aF0.129
aF-0.115
aF0.13600000000000001
aF0.070000000000000007
aF0.20599999999999999
aF0.55200000000000005
aF1.6040000000000001
aF1.5980000000000001
aF-0.192
aF0.72199999999999998
aF-0.12
aF0.90000000000000002
aF1.4530000000000001
aF0.40600000000000003
aF0.77300000000000002
aF0.88600000000000001
aF0.38200000000000001
aF0.879
aF0.76600000000000001
aF0.52700000000000002
aF0.35399999999999998
aF-0.185
aF0.20899999999999999
aF-0.68500000000000005
aF0.20699999999999999
aF0.25600000000000001
aF0.70899999999999996
aF0.51700000000000002
aF0.35899999999999999
aF0.312
aF0.11700000000000001
aF0.14199999999999999
aF0.251
aF0.21299999999999999
aF0.33800000000000002
aF0.308
aF-0.081000000000000003
aF0.26500000000000001
aF-0.14099999999999999
aF0.082000000000000003
aF0.157
aF0.107
aF0.625
aF0.38
aF0.029999999999999999
aF-0.040000000000000001
aF0.57799999999999996
aF0.01
aF0.186
aF-0.066000000000000003
aF-0.25
aF0.042999999999999997
aF-0.033000000000000002
aF-0.11
aF-0.14299999999999999
aF-0.27900000000000003
aF-0.41899999999999998
aF-0.27200000000000002
aF-0.31900000000000001
aF-0.311
aF0.002
aF0.19500000000000001
aF0.33900000000000002
aF0.058000000000000003
aF-0.13100000000000001
aF0.314
aF0.94799999999999995
aF0.48099999999999998
aF-0.14699999999999999
aF0.86899999999999999
aF-0.031
aF-0.36399999999999999
aF0.81200000000000006
aF-0.94399999999999995
aF-0.441
aF1.508
aF0.82499999999999996
aF0.17699999999999999
aF0.86699999999999999
aF0.46700000000000003
aF-0.053999999999999999
aF-0.54200000000000004
aF0.79100000000000004
aF0.88
as.